Certificate:
    Data:
        Version: 3 (0x2)
        Serial Number: 1 (0x1)
    Signature Algorithm: sha256WithRSAEncryption
        Issuer: C=CA, ST=guangdong, L=guangzhou, O=vinzor, OU=d\x08r, CN=c/emailAddress=ck@qq.com
        Validity
            Not Before: Mar 26 09:34:31 2018 GMT
            Not After : Mar 26 09:34:31 2019 GMT
        Subject: C=CA, ST=guangdong, O=vinzor, OU=v, CN=c/emailAddress=k@qq.com
        Subject Public Key Info:
            Public Key Algorithm: rsaEncryption
                Public-Key: (2048 bit)
                Modulus:
                    00:d8:17:58:82:40:66:fe:98:ca:3a:61:44:3e:4f:
                    08:d3:c3:15:6d:5d:41:61:03:e5:87:30:24:84:3b:
                    b8:50:33:45:41:55:7b:d1:72:e8:68:93:42:6b:c2:
                    8f:12:7c:96:24:2b:0a:b6:3c:92:15:89:a7:b1:90:
                    9e:d4:8a:36:b5:dd:1d:24:17:89:eb:64:0a:0b:b2:
                    ee:75:c6:7c:3e:a3:7b:71:78:be:12:17:c8:f8:db:
                    65:44:c8:73:4b:8a:19:e4:49:50:2b:6e:ed:5a:5d:
                    74:0b:cf:e6:9e:61:77:2c:2e:98:90:21:bd:55:a0:
                    3a:fd:f4:d9:5c:92:86:1c:7a:7c:0b:ba:27:b6:35:
                    8d:04:be:6c:49:38:40:9f:bf:6b:99:3f:83:70:5e:
                    e6:36:49:52:ea:9d:10:fe:d5:d9:b8:4d:a9:da:40:
                    8b:44:f6:70:d4:c7:60:29:50:f1:a7:a2:26:44:17:
                    98:b5:8d:d9:a0:af:12:66:c8:7d:9c:ed:09:79:ce:
                    13:51:6c:fd:13:95:a9:18:0d:c2:50:a0:0d:b0:fc:
                    d3:b7:21:74:de:4d:d6:f6:9b:7e:e9:9a:76:df:b5:
                    87:0b:28:31:d7:81:c1:d9:f0:12:07:46:55:12:43:
                    88:f8:b2:fa:b0:57:1d:e2:1d:46:19:c9:3d:71:8e:
                    13:a7
                Exponent: 65537 (0x10001)
        X509v3 extensions:
            X509v3 Basic Constraints: 
                CA:FALSE
            Netscape Comment: 
                OpenSSL Generated Certificate
            X509v3 Subject Key Identifier: 
                DF:2F:91:BB:DE:8B:4B:45:72:EF:0E:98:0E:CD:CD:00:5F:E6:39:3F
            X509v3 Authority Key Identifier: 
                keyid:B1:4F:E1:21:59:8C:72:10:7E:60:02:A6:EA:FB:0D:9D:AE:A8:E1:61

    Signature Algorithm: sha256WithRSAEncryption
         90:f9:72:82:5c:9e:37:02:b2:a7:3e:b9:85:9b:0c:ed:b1:36:
         8d:37:84:c9:75:0b:e4:40:e9:86:b9:36:e7:92:fe:b5:76:80:
         b4:8e:53:3a:4d:b4:1f:f5:d4:89:f6:aa:fd:d3:5d:cf:65:2e:
         27:9c:d8:6b:34:55:33:5c:87:57:7b:bc:a6:f2:41:0b:54:ac:
         6a:d0:00:c2:42:96:c4:3b:6c:e7:b1:eb:31:78:4c:db:c2:ae:
         16:69:59:a7:5f:06:7b:62:15:f7:ef:08:ff:0f:75:09:bd:28:
         74:57:df:b3:d6:22:b7:f6:5a:ff:fd:00:0d:d3:04:35:ae:58:
         dd:ec:df:71:b4:1d:f2:84:9a:ef:05:2e:f6:90:ba:9f:02:84:
         55:29:d1:0c:49:34:d4:c0:73:91:6d:ae:9f:1c:06:02:84:1a:
         b6:89:48:06:3e:05:a2:b3:73:f8:53:b1:91:51:6b:81:84:4c:
         cd:80:9e:b4:58:84:a7:15:a2:ed:8b:8b:36:b7:9b:4b:39:e4:
         35:37:e1:e2:8a:39:e6:a7:8a:61:a7:57:24:f5:49:41:37:4b:
         af:ea:32:62:19:34:44:7b:e7:d6:de:c7:a7:88:7e:19:2b:40:
         20:92:d4:78:15:93:64:67:86:31:6f:86:c8:a8:a1:f9:95:79:
         02:d7:54:f9
-----BEGIN CERTIFICATE-----
MIID0zCCArugAwIBAgIBATANBgkqhkiG9w0BAQsFADB6MQswCQYDVQQGEwJDQTES
MBAGA1UECAwJZ3Vhbmdkb25nMRIwEAYDVQQHDAlndWFuZ3pob3UxDzANBgNVBAoM
BnZpbnpvcjEMMAoGA1UECwwDZAhyMQowCAYDVQQDDAFjMRgwFgYJKoZIhvcNAQkB
Fglja0BxcS5jb20wHhcNMTgwMzI2MDkzNDMxWhcNMTkwMzI2MDkzNDMxWjBjMQsw
CQYDVQQGEwJDQTESMBAGA1UECAwJZ3Vhbmdkb25nMQ8wDQYDVQQKDAZ2aW56b3Ix
CjAIBgNVBAsMAXYxCjAIBgNVBAMMAWMxFzAVBgkqhkiG9w0BCQEWCGtAcXEuY29t
MIIBIjANBgkqhkiG9w0BAQEFAAOCAQ8AMIIBCgKCAQEA2BdYgkBm/pjKOmFEPk8I
08MVbV1BYQPlhzAkhDu4UDNFQVV70XLoaJNCa8KPEnyWJCsKtjySFYmnsZCe1Io2
td0dJBeJ62QKC7LudcZ8PqN7cXi+EhfI+NtlRMhzS4oZ5ElQK27tWl10C8/mnmF3
LC6YkCG9VaA6/fTZXJKGHHp8C7ontjWNBL5sSThAn79rmT+DcF7mNklS6p0Q/tXZ
uE2p2kCLRPZw1MdgKVDxp6ImRBeYtY3ZoK8SZsh9nO0Jec4TUWz9E5WpGA3CUKAN
sPzTtyF03k3W9pt+6Zp237WHCygx14HB2fASB0ZVEkOI+LL6sFcd4h1GGck9cY4T
pwIDAQABo3sweTAJBgNVHRMEAjAAMCwGCWCGSAGG+EIBDQQfFh1PcGVuU1NMIEdl
bmVyYXRlZCBDZXJ0aWZpY2F0ZTAdBgNVHQ4EFgQU3y+Ru96LS0Vy7w6YDs3NAF/m
OT8wHwYDVR0jBBgwFoAUsU/hIVmMchB+YAKm6vsNna6o4WEwDQYJKoZIhvcNAQEL
BQADggEBAJD5coJcnjcCsqc+uYWbDO2xNo03hMl1C+RA6Ya5NueS/rV2gLSOUzpN
tB/11In2qv3TXc9lLiec2Gs0VTNch1d7vKbyQQtUrGrQAMJClsQ7bOex6zF4TNvC
rhZpWadfBntiFffvCP8PdQm9KHRX37PWIrf2Wv/9AA3TBDWuWN3s33G0HfKEmu8F
LvaQup8ChFUp0QxJNNTAc5Ftrp8cBgKEGraJSAY+BaKzc/hTsZFRa4GETM2AnrRY
hKcVou2Liza3m0s55DU34eKKOeanimGnVyT1SUE3S6/qMmIZNER759bex6eIfhkr
QCCS1HgVk2RnhjFvhsioofmVeQLXVPk=
-----END CERTIFICATE-----
